target datalayout = "e-m:e-p270:32:32-p271:32:32-p272:64:64-i64:64-i128:128-f80:128-n8:16:32:64-S128"
target triple = "x86_64-pc-linux-gnu"

; Function Attrs: inlinehint nounwind uwtable
define internal void @put_pixels4_xy2_8_c(ptr noundef %0, ptr noundef %1, i64 noundef %2, i32 noundef %3) #2 {
  %5 = alloca ptr, align 8
  %6 = alloca ptr, align 8
  %7 = alloca i64, align 8
  %8 = alloca i32, align 4
  %9 = alloca i32, align 4
  %10 = alloca i32, align 4
  %11 = alloca i32, align 4
  %12 = alloca i32, align 4
  %13 = alloca i32, align 4
  %14 = alloca i32, align 4
  %15 = alloca i32, align 4
  %16 = alloca i32, align 4
  %17 = alloca i32, align 4
  store ptr %0, ptr %5, align 8, !tbaa !12
  store ptr %1, ptr %6, align 8, !tbaa !12
  store i64 %2, ptr %7, align 8, !tbaa !14
  store i32 %3, ptr %8, align 4, !tbaa !9
  call void @llvm.lifetime.start.p0(i64 4, ptr %9) #4
  call void @llvm.lifetime.start.p0(i64 4, ptr %10) #4
  %18 = load ptr, ptr %6, align 8, !tbaa !12
  %19 = load i32, ptr %18, align 1, !tbaa !16
  store i32 %19, ptr %10, align 4, !tbaa !9
  call void @llvm.lifetime.start.p0(i64 4, ptr %11) #4
  %20 = load ptr, ptr %6, align 8, !tbaa !12
  %21 = getelementptr inbounds i8, ptr %20, i64 1
  %22 = load i32, ptr %21, align 1, !tbaa !16
  store i32 %22, ptr %11, align 4, !tbaa !9
  call void @llvm.lifetime.start.p0(i64 4, ptr %12) #4
  %23 = load i32, ptr %10, align 4, !tbaa !9
  %24 = zext i32 %23 to i64
  %25 = and i64 %24, 50529027
  %26 = load i32, ptr %11, align 4, !tbaa !9
  %27 = zext i32 %26 to i64
  %28 = and i64 %27, 50529027
  %29 = add i64 %25, %28
  %30 = add i64 %29, 33686018
  %31 = trunc i64 %30 to i32
  store i32 %31, ptr %12, align 4, !tbaa !9
  call void @llvm.lifetime.start.p0(i64 4, ptr %13) #4
  %32 = load i32, ptr %10, align 4, !tbaa !9
  %33 = zext i32 %32 to i64
  %34 = and i64 %33, 4244438268
  %35 = lshr i64 %34, 2
  %36 = load i32, ptr %11, align 4, !tbaa !9
  %37 = zext i32 %36 to i64
  %38 = and i64 %37, 4244438268
  %39 = lshr i64 %38, 2
  %40 = add i64 %35, %39
  %41 = trunc i64 %40 to i32
  store i32 %41, ptr %13, align 4, !tbaa !9
  call void @llvm.lifetime.start.p0(i64 4, ptr %14) #4
  call void @llvm.lifetime.start.p0(i64 4, ptr %15) #4
  %42 = load i64, ptr %7, align 8, !tbaa !14
  %43 = load ptr, ptr %6, align 8, !tbaa !12
  %44 = getelementptr inbounds i8, ptr %43, i64 %42
  store ptr %44, ptr %6, align 8, !tbaa !12
  store i32 0, ptr %9, align 4, !tbaa !9
  br label %45

45:                                               ; preds = %135, %4
  %46 = load i32, ptr %9, align 4, !tbaa !9
  %47 = load i32, ptr %8, align 4, !tbaa !9
  %48 = icmp slt i32 %46, %47
  br i1 %48, label %49, label %138

49:                                               ; preds = %45
  call void @llvm.lifetime.start.p0(i64 4, ptr %16) #4
  %50 = load ptr, ptr %6, align 8, !tbaa !12
  %51 = load i32, ptr %50, align 1, !tbaa !16
  store i32 %51, ptr %16, align 4, !tbaa !9
  call void @llvm.lifetime.start.p0(i64 4, ptr %17) #4
  %52 = load ptr, ptr %6, align 8, !tbaa !12
  %53 = getelementptr inbounds i8, ptr %52, i64 1
  %54 = load i32, ptr %53, align 1, !tbaa !16
  store i32 %54, ptr %17, align 4, !tbaa !9
  %55 = load i32, ptr %16, align 4, !tbaa !9
  %56 = zext i32 %55 to i64
  %57 = and i64 %56, 50529027
  %58 = load i32, ptr %17, align 4, !tbaa !9
  %59 = zext i32 %58 to i64
  %60 = and i64 %59, 50529027
  %61 = add i64 %57, %60
  %62 = trunc i64 %61 to i32
  store i32 %62, ptr %14, align 4, !tbaa !9
  %63 = load i32, ptr %16, align 4, !tbaa !9
  %64 = zext i32 %63 to i64
  %65 = and i64 %64, 4244438268
  %66 = lshr i64 %65, 2
  %67 = load i32, ptr %17, align 4, !tbaa !9
  %68 = zext i32 %67 to i64
  %69 = and i64 %68, 4244438268
  %70 = lshr i64 %69, 2
  %71 = add i64 %66, %70
  %72 = trunc i64 %71 to i32
  store i32 %72, ptr %15, align 4, !tbaa !9
  %73 = load i32, ptr %13, align 4, !tbaa !9
  %74 = load i32, ptr %15, align 4, !tbaa !9
  %75 = add i32 %73, %74
  %76 = zext i32 %75 to i64
  %77 = load i32, ptr %12, align 4, !tbaa !9
  %78 = load i32, ptr %14, align 4, !tbaa !9
  %79 = add i32 %77, %78
  %80 = lshr i32 %79, 2
  %81 = zext i32 %80 to i64
  %82 = and i64 %81, 252645135
  %83 = add i64 %76, %82
  %84 = trunc i64 %83 to i32
  %85 = load ptr, ptr %5, align 8, !tbaa !12
  store i32 %84, ptr %85, align 4, !tbaa !9
  %86 = load i64, ptr %7, align 8, !tbaa !14
  %87 = load ptr, ptr %6, align 8, !tbaa !12
  %88 = getelementptr inbounds i8, ptr %87, i64 %86
  store ptr %88, ptr %6, align 8, !tbaa !12
  %89 = load i64, ptr %7, align 8, !tbaa !14
  %90 = load ptr, ptr %5, align 8, !tbaa !12
  %91 = getelementptr inbounds i8, ptr %90, i64 %89
  store ptr %91, ptr %5, align 8, !tbaa !12
  %92 = load ptr, ptr %6, align 8, !tbaa !12
  %93 = load i32, ptr %92, align 1, !tbaa !16
  store i32 %93, ptr %16, align 4, !tbaa !9
  %94 = load ptr, ptr %6, align 8, !tbaa !12
  %95 = getelementptr inbounds i8, ptr %94, i64 1
  %96 = load i32, ptr %95, align 1, !tbaa !16
  store i32 %96, ptr %17, align 4, !tbaa !9
  %97 = load i32, ptr %16, align 4, !tbaa !9
  %98 = zext i32 %97 to i64
  %99 = and i64 %98, 50529027
  %100 = load i32, ptr %17, align 4, !tbaa !9
  %101 = zext i32 %100 to i64
  %102 = and i64 %101, 50529027
  %103 = add i64 %99, %102
  %104 = add i64 %103, 33686018
  %105 = trunc i64 %104 to i32
  store i32 %105, ptr %12, align 4, !tbaa !9
  %106 = load i32, ptr %16, align 4, !tbaa !9
  %107 = zext i32 %106 to i64
  %108 = and i64 %107, 4244438268
  %109 = lshr i64 %108, 2
  %110 = load i32, ptr %17, align 4, !tbaa !9
  %111 = zext i32 %110 to i64
  %112 = and i64 %111, 4244438268
  %113 = lshr i64 %112, 2
  %114 = add i64 %109, %113
  %115 = trunc i64 %114 to i32
  store i32 %115, ptr %13, align 4, !tbaa !9
  %116 = load i32, ptr %13, align 4, !tbaa !9
  %117 = load i32, ptr %15, align 4, !tbaa !9
  %118 = add i32 %116, %117
  %119 = zext i32 %118 to i64
  %120 = load i32, ptr %12, align 4, !tbaa !9
  %121 = load i32, ptr %14, align 4, !tbaa !9
  %122 = add i32 %120, %121
  %123 = lshr i32 %122, 2
  %124 = zext i32 %123 to i64
  %125 = and i64 %124, 252645135
  %126 = add i64 %119, %125
  %127 = trunc i64 %126 to i32
  %128 = load ptr, ptr %5, align 8, !tbaa !12
  store i32 %127, ptr %128, align 4, !tbaa !9
  %129 = load i64, ptr %7, align 8, !tbaa !14
  %130 = load ptr, ptr %6, align 8, !tbaa !12
  %131 = getelementptr inbounds i8, ptr %130, i64 %129
  store ptr %131, ptr %6, align 8, !tbaa !12
  %132 = load i64, ptr %7, align 8, !tbaa !14
  %133 = load ptr, ptr %5, align 8, !tbaa !12
  %134 = getelementptr inbounds i8, ptr %133, i64 %132
  store ptr %134, ptr %5, align 8, !tbaa !12
  call void @llvm.lifetime.end.p0(i64 4, ptr %17) #4
  call void @llvm.lifetime.end.p0(i64 4, ptr %16) #4
  br label %135

135:                                              ; preds = %49
  %136 = load i32, ptr %9, align 4, !tbaa !9
  %137 = add nsw i32 %136, 2
  store i32 %137, ptr %9, align 4, !tbaa !9
  br label %45, !llvm.loop !22

138:                                              ; preds = %45
  call void @llvm.lifetime.end.p0(i64 4, ptr %15) #4
  call void @llvm.lifetime.end.p0(i64 4, ptr %14) #4
  call void @llvm.lifetime.end.p0(i64 4, ptr %13) #4
  call void @llvm.lifetime.end.p0(i64 4, ptr %12) #4
  call void @llvm.lifetime.end.p0(i64 4, ptr %11) #4
  call void @llvm.lifetime.end.p0(i64 4, ptr %10) #4
  call void @llvm.lifetime.end.p0(i64 4, ptr %9) #4
  ret void
}