; Function Attrs: inlinehint nofree norecurse nosync nounwind memory(argmem: readwrite) uwtable
define internal void @put_pixels4_xy2_8_c(ptr noundef writeonly captures(none) %0, ptr noundef readonly captures(none) %1, i64 noundef %2, i32 noundef %3) #2 {
  %5 = icmp sgt i32 %3, 0
  br i1 %5, label %.lr.ph.preheader, label %._crit_edge

.lr.ph.preheader:                                 ; preds = %4
  %6 = getelementptr inbounds nuw i8, ptr %1, i64 1
  %7 = load i32, ptr %6, align 1, !tbaa !8
  %8 = lshr i32 %7, 2
  %9 = and i32 %8, 1061109567
  %10 = load i32, ptr %1, align 1, !tbaa !8
  %11 = lshr i32 %10, 2
  %12 = and i32 %11, 1061109567
  %narrow = add nuw nsw i32 %9, %12
  %13 = and i32 %10, 50529027
  %14 = add nuw nsw i32 %13, 33686018
  %15 = and i32 %7, 50529027
  %16 = add nuw nsw i32 %14, %15
  br label %.lr.ph

.lr.ph:                                           ; preds = %.lr.ph.preheader, %.lr.ph
  %.050 = phi ptr [ %50, %.lr.ph ], [ %0, %.lr.ph.preheader ]
  %.pn49 = phi ptr [ %32, %.lr.ph ], [ %1, %.lr.ph.preheader ]
  %.04148 = phi i32 [ %51, %.lr.ph ], [ 0, %.lr.ph.preheader ]
  %.04247 = phi i32 [ %40, %.lr.ph ], [ %16, %.lr.ph.preheader ]
  %.04346 = phi i32 [ %narrow45, %.lr.ph ], [ %narrow, %.lr.ph.preheader ]
  %.040 = getelementptr inbounds i8, ptr %.pn49, i64 %2
  %17 = load i32, ptr %.040, align 1, !tbaa !8
  %18 = getelementptr inbounds nuw i8, ptr %.040, i64 1
  %19 = load i32, ptr %18, align 1, !tbaa !8
  %20 = and i32 %17, 50529027
  %21 = and i32 %19, 50529027
  %22 = add nuw nsw i32 %21, %20
  %23 = lshr i32 %17, 2
  %24 = and i32 %23, 1061109567
  %25 = lshr i32 %19, 2
  %26 = and i32 %25, 1061109567
  %narrow44 = add nuw nsw i32 %26, %24
  %27 = add nuw i32 %narrow44, %.04346
  %28 = add nuw nsw i32 %22, %.04247
  %29 = lshr i32 %28, 2
  %30 = and i32 %29, 252645135
  %31 = add i32 %27, %30
  store i32 %31, ptr %.050, align 4, !tbaa !9
  %32 = getelementptr inbounds i8, ptr %.040, i64 %2
  %33 = getelementptr inbounds i8, ptr %.050, i64 %2
  %34 = load i32, ptr %32, align 1, !tbaa !8
  %35 = getelementptr inbounds nuw i8, ptr %32, i64 1
  %36 = load i32, ptr %35, align 1, !tbaa !8
  %37 = and i32 %34, 50529027
  %38 = and i32 %36, 50529027
  %39 = add nuw nsw i32 %37, 33686018
  %40 = add nuw nsw i32 %39, %38
  %41 = lshr i32 %34, 2
  %42 = and i32 %41, 1061109567
  %43 = lshr i32 %36, 2
  %44 = and i32 %43, 1061109567
  %narrow45 = add nuw nsw i32 %44, %42
  %45 = add nuw i32 %narrow45, %narrow44
  %46 = add nuw nsw i32 %40, %22
  %47 = lshr i32 %46, 2
  %48 = and i32 %47, 117901063
  %49 = add i32 %45, %48
  store i32 %49, ptr %33, align 4, !tbaa !9
  %50 = getelementptr inbounds i8, ptr %33, i64 %2
  %51 = add nuw nsw i32 %.04148, 2
  %52 = icmp slt i32 %51, %3
  br i1 %52, label %.lr.ph, label %._crit_edge, !llvm.loop !18

._crit_edge:                                      ; preds = %.lr.ph, %4
  ret void
}